; Function Attrs: nofree norecurse nosync nounwind memory(read, argmem: readwrite, inaccessiblemem: none) uwtable
define dso_local i32 @assignSortGroupRef(ptr noundef captures(none) %0, ptr noundef readonly captures(address_is_null) %1) local_unnamed_addr #4 {
  %3 = getelementptr inbounds nuw i8, ptr %0, i64 32
  %4 = load i32, ptr %3, align 8
  %.not = icmp eq i32 %4, 0
  br i1 %.not, label %.preheader, label %16

.preheader:                                       ; preds = %2
  %.not19 = icmp eq ptr %1, null
  br i1 %.not19, label %._crit_edge, label %.lr.ph

.lr.ph:                                           ; preds = %.preheader
  %5 = getelementptr inbounds nuw i8, ptr %1, i64 4
  %6 = load i32, ptr %5, align 4
  %7 = icmp sgt i32 %6, 0
  br i1 %7, label %.lr.ph30, label %._crit_edge

.lr.ph30:                                         ; preds = %.lr.ph
  %8 = getelementptr inbounds nuw i8, ptr %1, i64 16
  %9 = load ptr, ptr %8, align 8
  %wide.trip.count = zext nneg i32 %6 to i64
  br label %11

._crit_edge.loopexit:                             ; preds = %11
  %10 = add i32 %spec.select, 1
  br label %._crit_edge

._crit_edge:                                      ; preds = %._crit_edge.loopexit, %.lr.ph, %.preheader
  %.014.lcssa = phi i32 [ 1, %.preheader ], [ 1, %.lr.ph ], [ %10, %._crit_edge.loopexit ]
  store i32 %.014.lcssa, ptr %3, align 8
  br label %16

11:                                               ; preds = %.lr.ph30, %11
  %indvars.iv = phi i64 [ 0, %.lr.ph30 ], [ %indvars.iv.next, %11 ]
  %.0142428 = phi i32 [ 0, %.lr.ph30 ], [ %spec.select, %11 ]
  %12 = getelementptr inbounds nuw %union.ListCell, ptr %9, i64 %indvars.iv
  %13 = load ptr, ptr %12, align 8
  %14 = getelementptr inbounds nuw i8, ptr %13, i64 32
  %15 = load i32, ptr %14, align 8
  %spec.select = tail call i32 @llvm.umax.i32(i32 %15, i32 %.0142428)
  %indvars.iv.next = add nuw nsw i64 %indvars.iv, 1
  %exitcond.not = icmp eq i64 %indvars.iv.next, %wide.trip.count
  br i1 %exitcond.not, label %._crit_edge.loopexit, label %11

16:                                               ; preds = %2, %._crit_edge
  %.0 = phi i32 [ %.014.lcssa, %._crit_edge ], [ %4, %2 ]
  ret i32 %.0
}